target datalayout = "e-m:e-p270:32:32-p271:32:32-p272:64:64-i64:64-i128:128-f80:128-n8:16:32:64-S128"
target triple = "x86_64-pc-linux-gnu"

@ignore_case = external global i32, align 4

; Function Attrs: nounwind uwtable
define dso_local i32 @git_fspathcmp(ptr noundef %0, ptr noundef %1) #0 {
  %3 = alloca ptr, align 8
  %4 = alloca ptr, align 8
  store ptr %0, ptr %3, align 8, !tbaa !13
  store ptr %1, ptr %4, align 8, !tbaa !13
  %5 = load i32, ptr @ignore_case, align 4, !tbaa !16
  %6 = icmp ne i32 %5, 0
  br i1 %6, label %7, label %11

7:                                                ; preds = %2
  %8 = load ptr, ptr %3, align 8, !tbaa !13
  %9 = load ptr, ptr %4, align 8, !tbaa !13
  %10 = call i32 @strcasecmp(ptr noundef %8, ptr noundef %9) #13
  br label %15

11:                                               ; preds = %2
  %12 = load ptr, ptr %3, align 8, !tbaa !13
  %13 = load ptr, ptr %4, align 8, !tbaa !13
  %14 = call i32 @strcmp(ptr noundef %12, ptr noundef %13) #13
  br label %15

15:                                               ; preds = %11, %7
  %16 = phi i32 [ %10, %7 ], [ %14, %11 ]
  ret i32 %16
}

; Function Attrs: nounwind uwtable
define dso_local i32 @fspatheq(ptr noundef %0, ptr noundef %1) #0 {
  %3 = alloca ptr, align 8
  %4 = alloca ptr, align 8
  store ptr %0, ptr %3, align 8, !tbaa !13
  store ptr %1, ptr %4, align 8, !tbaa !13
  %5 = load ptr, ptr %3, align 8, !tbaa !13
  %6 = load ptr, ptr %4, align 8, !tbaa !13
  %7 = call i32 @git_fspathcmp(ptr noundef %5, ptr noundef %6)
  %8 = icmp ne i32 %7, 0
  %9 = xor i1 %8, true
  %10 = zext i1 %9 to i32
  ret i32 %10
}