; Function Attrs: mustprogress nofree nounwind willreturn memory(read) uwtable
define dso_local range(i32 0, 2) i32 @fspatheq(ptr noundef readonly captures(none) %0, ptr noundef readonly captures(none) %1) local_unnamed_addr #4 {
  %3 = load i32, ptr @ignore_case, align 4, !tbaa !10
  %.not.i = icmp eq i32 %3, 0
  br i1 %.not.i, label %6, label %4

4:                                                ; preds = %2
  %5 = tail call i32 @strcasecmp(ptr noundef readonly %0, ptr noundef readonly %1) #28
  br label %git_fspathcmp.exit

6:                                                ; preds = %2
  %7 = tail call i32 @strcmp(ptr noundef nonnull readonly dereferenceable(1) %0, ptr noundef nonnull readonly dereferenceable(1) %1) #28
  br label %git_fspathcmp.exit

git_fspathcmp.exit:                               ; preds = %4, %6
  %8 = phi i32 [ %5, %4 ], [ %7, %6 ]
  %.not = icmp eq i32 %8, 0
  %9 = zext i1 %.not to i32
  ret i32 %9
}